(lp0
(lp1
(lp2
F0.0
aF-0.25891675029296335
aF0.27308002334483256
aF0.27308002334483256
aF-0.3103020161101996
aF0.27308002334483256
aF-0.7558042041572239
aF0.0
aF0.27308002334483256
aF0.0
aF-0.7298317482601286
aF0.27308002334483256
aF-0.1007012080683658
aF-0.6108869734438016
aF0.0
aF-0.5922299044268089
aF-0.8050278270130223
aF0.27308002334483256
aF0.0
aF0.27308002334483256
aF-0.49357786646532464
aF0.27308002334483256
aF-0.8704712321086546
aF-0.5675107406206719
aF-0.9675402502901433
aF0.27308002334483256
aa(lp3
F-0.32005460467254576
aF0.0
aF-0.65949504189962
aF-0.10822779580906942
aF-0.10822779580906942
aF-0.10822779580906942
aF0.0
aF0.0
aF-0.10822779580906942
aF-0.1867295282555551
aF0.0
aF-0.1980521570046632
aF0.0
aF0.0
aF0.0
aF-0.10822779580906942
aF0.0
aF-0.10822779580906942
aF0.0
aF-0.10822779580906942
aF-0.660245378622389
aF-0.10822779580906942
aF0.0
aF0.0
aF0.0
aF-0.8397170165999166
aa(lp4
F-0.22046053686782852
aF0.0
aF-0.06709285207759288
aF-0.7647634922688321
aF-0.6409588888667602
aF-0.06709285207759288
aF0.0
aF0.0
aF-0.06709285207759288
aF-0.9805166506472687
aF-0.021636509855024078
aF-0.06709285207759288
aF-0.21057650988664645
aF0.0
aF-0.42561883196681716
aF-0.3270127418704246
aF-0.6469257198353225
aF-0.24741075360728065
aF0.0
aF-1.055328000800094
aF-0.35855530131160185
aF-0.06709285207759288
aF0.0
aF0.0
aF-0.6762017842993783
aF-0.06709285207759288
aa(lp5
F-0.596791393469411
aF-0.17481948445144113
aF-0.41898939948593333
aF-0.009084003828378406
aF-0.3662356864186416
aF-0.009084003828378406
aF0.0
aF0.0
aF-0.289967168046727
aF-0.9531293398277989
aF-0.2878779148564
aF-0.9559898394862674
aF0.0
aF0.0
aF-0.650832862263345
aF-0.20139354507305413
aF-0.23941596018595857
aF-0.009084003828378406
aF0.0
aF-0.4113510789474583
aF0.0
aF-0.009084003828378406
aF-0.25922692344722276
aF-0.5275731301676146
aF-0.5614049256144269
aF-0.009084003828378406
aa(lp6
F-0.31205824641687296
aF-0.8090458573603624
aF-0.12318086582893618
aF-1.1226012252842676
aF-0.12318086582893618
aF-0.12318086582893618
aF-0.6785150052419683
aF-0.2135246620646961
aF-0.12318086582893618
aF0.0
aF-0.11890389478474583
aF-0.12318086582893618
aF-0.9785151867733981
aF-0.8539381095973382
aF-0.08134541676823415
aF-0.5761590506468508
aF0.0
aF-0.6440463942431356
aF0.0
aF-0.12318086582893618
aF-0.0406632736752609
aF-0.12318086582893618
aF0.0
aF0.0
aF0.0
aF-0.12318086582893618
aaa(lp7
(lp8
F1.1643711166069166
aF-0.19157894222173327
aF-0.4513270191405227
aF0.05216985427605402
aF-0.5972696073330765
aF3.145457741130796
aaa.